target datalayout = "e-m:e-p270:32:32-p271:32:32-p272:64:64-i64:64-i128:128-f80:128-n8:16:32:64-S128"
target triple = "x86_64-unknown-linux-gnu"

%"class.proxygen::HTTP2PriorityQueue::Node" = type { %"class.proxygen::HTTP2PriorityQueueBase::BaseNode", %"class.folly::HHWheelTimerBase<std::chrono::duration<long, std::ratio<1, 1000>>>::Callback", ptr, ptr, i64, i16, ptr, i8, i8, i64, i64, %"class.std::__cxx11::list", %"struct.std::_List_iterator", %"class.boost::intrusive::list_member_hook", %"class.boost::intrusive::list" }
%"class.proxygen::HTTP2PriorityQueueBase::BaseNode" = type { ptr }
%"class.folly::HHWheelTimerBase<std::chrono::duration<long, std::ratio<1, 1000>>>::Callback" = type { ptr, %"class.boost::intrusive::list_base_hook", ptr, %"class.std::chrono::time_point", i32, %"class.std::shared_ptr" }
%"class.boost::intrusive::list_base_hook" = type { %"class.boost::intrusive::generic_hook" }
%"class.boost::intrusive::generic_hook" = type { %"struct.boost::intrusive::node_holder" }
%"struct.boost::intrusive::node_holder" = type { %"struct.boost::intrusive::list_node" }
%"struct.boost::intrusive::list_node" = type { ptr, ptr }
%"class.std::chrono::time_point" = type { %"class.std::chrono::duration" }
%"class.std::chrono::duration" = type { i64 }
%"class.std::shared_ptr" = type { %"class.std::__shared_ptr" }
%"class.std::__shared_ptr" = type { ptr, %"class.std::__shared_count" }
%"class.std::__shared_count" = type { ptr }
%"class.std::__cxx11::list" = type { %"class.std::__cxx11::_List_base" }
%"class.std::__cxx11::_List_base" = type { %"struct.std::__cxx11::_List_base<std::unique_ptr<proxygen::HTTP2PriorityQueue::Node>, std::allocator<std::unique_ptr<proxygen::HTTP2PriorityQueue::Node>>>::_List_impl" }
%"struct.std::__cxx11::_List_base<std::unique_ptr<proxygen::HTTP2PriorityQueue::Node>, std::allocator<std::unique_ptr<proxygen::HTTP2PriorityQueue::Node>>>::_List_impl" = type { %"struct.std::__detail::_List_node_header" }
%"struct.std::__detail::_List_node_header" = type { %"struct.std::__detail::_List_node_base", i64 }
%"struct.std::__detail::_List_node_base" = type { ptr, ptr }
%"struct.std::_List_iterator" = type { ptr }
%"class.boost::intrusive::list_member_hook" = type { %"class.boost::intrusive::generic_hook.0" }
%"class.boost::intrusive::generic_hook.0" = type { %"struct.boost::intrusive::list_node" }
%"class.boost::intrusive::list" = type { %"class.boost::intrusive::list_impl" }
%"class.boost::intrusive::list_impl" = type { %"struct.boost::intrusive::list_impl<boost::intrusive::mhtraits<proxygen::HTTP2PriorityQueue::Node, boost::intrusive::list_member_hook<boost::intrusive::link_mode<boost::intrusive::auto_unlink>>, &proxygen::HTTP2PriorityQueue::Node::enqueuedHook_>, unsigned long, false, void>::data_t" }
%"struct.boost::intrusive::list_impl<boost::intrusive::mhtraits<proxygen::HTTP2PriorityQueue::Node, boost::intrusive::list_member_hook<boost::intrusive::link_mode<boost::intrusive::auto_unlink>>, &proxygen::HTTP2PriorityQueue::Node::enqueuedHook_>, unsigned long, false, void>::data_t" = type { %"struct.boost::intrusive::list_impl<boost::intrusive::mhtraits<proxygen::HTTP2PriorityQueue::Node, boost::intrusive::list_member_hook<boost::intrusive::link_mode<boost::intrusive::auto_unlink>>, &proxygen::HTTP2PriorityQueue::Node::enqueuedHook_>, unsigned long, false, void>::root_plus_size" }
%"struct.boost::intrusive::list_impl<boost::intrusive::mhtraits<proxygen::HTTP2PriorityQueue::Node, boost::intrusive::list_member_hook<boost::intrusive::link_mode<boost::intrusive::auto_unlink>>, &proxygen::HTTP2PriorityQueue::Node::enqueuedHook_>, unsigned long, false, void>::root_plus_size" = type { %"struct.boost::intrusive::detail::default_header_holder" }
%"struct.boost::intrusive::detail::default_header_holder" = type { %"struct.boost::intrusive::list_node" }

; Function Attrs: mustprogress nounwind uwtable
define linkonce_odr noundef ptr @_ZNK8proxygen18HTTP2PriorityQueue4Node9getParentEv(ptr noundef nonnull align 8 dereferenceable(200) %this) #4 comdat align 2 {
entry:
  %this.addr = alloca ptr, align 8
  store ptr %this, ptr %this.addr, align 8
  %this1 = load ptr, ptr %this.addr, align 8
  %parent_ = getelementptr inbounds %"class.proxygen::HTTP2PriorityQueue::Node", ptr %this1, i32 0, i32 3
  %0 = load ptr, ptr %parent_, align 8
  ret ptr %0
}

; Function Attrs: mustprogress uwtable
define noundef i64 @_ZNK8proxygen18HTTP2PriorityQueue4Node14calculateDepthEb(ptr noundef nonnull align 8 dereferenceable(200) %this, i1 noundef zeroext %includeVirtual) unnamed_addr #5 align 2 {
entry:
  %this.addr = alloca ptr, align 8
  %includeVirtual.addr = alloca i8, align 1
  %depth = alloca i64, align 8
  %cur = alloca ptr, align 8
  store ptr %this, ptr %this.addr, align 8
  %frombool = zext i1 %includeVirtual to i8
  store i8 %frombool, ptr %includeVirtual.addr, align 1
  %this1 = load ptr, ptr %this.addr, align 8
  store i64 0, ptr %depth, align 8
  store ptr %this1, ptr %cur, align 8
  br label %while.cond

while.cond:                                       ; preds = %if.end, %entry
  %0 = load ptr, ptr %cur, align 8
  %call = call noundef ptr @_ZNK8proxygen18HTTP2PriorityQueue4Node9getParentEv(ptr noundef nonnull align 8 dereferenceable(200) %0)
  %cmp = icmp ne ptr %call, null
  br i1 %cmp, label %while.body, label %while.end

while.body:                                       ; preds = %while.cond
  %1 = load ptr, ptr %cur, align 8
  %txn_ = getelementptr inbounds %"class.proxygen::HTTP2PriorityQueue::Node", ptr %1, i32 0, i32 6
  %2 = load ptr, ptr %txn_, align 8
  %tobool = icmp ne ptr %2, null
  br i1 %tobool, label %if.then, label %lor.lhs.false

lor.lhs.false:                                    ; preds = %while.body
  %3 = load i8, ptr %includeVirtual.addr, align 1
  %tobool2 = trunc i8 %3 to i1
  br i1 %tobool2, label %if.then, label %if.end

if.then:                                          ; preds = %lor.lhs.false, %while.body
  %4 = load i64, ptr %depth, align 8
  %add = add i64 %4, 1
  store i64 %add, ptr %depth, align 8
  br label %if.end

if.end:                                           ; preds = %if.then, %lor.lhs.false
  %5 = load ptr, ptr %cur, align 8
  %call3 = call noundef ptr @_ZNK8proxygen18HTTP2PriorityQueue4Node9getParentEv(ptr noundef nonnull align 8 dereferenceable(200) %5)
  store ptr %call3, ptr %cur, align 8
  br label %while.cond, !llvm.loop !24

while.end:                                        ; preds = %while.cond
  %6 = load i64, ptr %depth, align 8
  ret i64 %6
}