; Function Attrs: mustprogress nofree norecurse nosync nounwind willreturn memory(read, inaccessiblemem: none) uwtable
define noundef i64 @_ZNK8proxygen18HTTP2PriorityQueue4Node14calculateDepthEb(ptr nocapture noundef nonnull readonly align 8 dereferenceable(200) %this, i1 noundef zeroext %includeVirtual) unnamed_addr #12 align 2 {
entry:
  %parent_.i5 = getelementptr inbounds i8, ptr %this, i64 80
  %0 = load ptr, ptr %parent_.i5, align 8
  %cmp.not6 = icmp eq ptr %0, null
  br i1 %cmp.not6, label %while.end, label %while.body

while.body:                                       ; preds = %entry, %while.body
  %1 = phi ptr [ %3, %while.body ], [ %0, %entry ]
  %cur.08 = phi ptr [ %1, %while.body ], [ %this, %entry ]
  %depth.07 = phi i64 [ %depth.1, %while.body ], [ 0, %entry ]
  %txn_ = getelementptr inbounds i8, ptr %cur.08, i64 104
  %2 = load ptr, ptr %txn_, align 8
  %tobool.not = icmp ne ptr %2, null
  %brmerge = or i1 %tobool.not, %includeVirtual
  %add = zext i1 %brmerge to i64
  %depth.1 = add i64 %depth.07, %add
  %parent_.i = getelementptr inbounds i8, ptr %1, i64 80
  %3 = load ptr, ptr %parent_.i, align 8
  %cmp.not = icmp eq ptr %3, null
  br i1 %cmp.not, label %while.end, label %while.body, !llvm.loop !24

while.end:                                        ; preds = %while.body, %entry
  %depth.0.lcssa = phi i64 [ 0, %entry ], [ %depth.1, %while.body ]
  ret i64 %depth.0.lcssa
}